target datalayout = "e-m:e-p270:32:32-p271:32:32-p272:64:64-i64:64-i128:128-f80:128-n8:16:32:64-S128"
target triple = "x86_64-pc-linux-gnu"

%struct.Aig_CMan_t_ = type { i32, i32, i32, i32, i32, i32, ptr, i32, i32, [0 x i8] }

; Function Attrs: nounwind uwtable
define void @Aig_CManRestart(ptr noundef %0) #0 {
  %2 = alloca ptr, align 8
  store ptr %0, ptr %2, align 8, !tbaa !53
  %3 = load ptr, ptr %2, align 8, !tbaa !53
  %4 = getelementptr inbounds nuw %struct.Aig_CMan_t_, ptr %3, i32 0, i32 0
  %5 = load i32, ptr %4, align 8, !tbaa !55
  %6 = add nsw i32 1, %5
  %7 = load ptr, ptr %2, align 8, !tbaa !53
  %8 = getelementptr inbounds nuw %struct.Aig_CMan_t_, ptr %7, i32 0, i32 3
  store i32 %6, ptr %8, align 4, !tbaa !60
  %9 = load ptr, ptr %2, align 8, !tbaa !53
  %10 = getelementptr inbounds nuw %struct.Aig_CMan_t_, ptr %9, i32 0, i32 7
  store i32 -1, ptr %10, align 8, !tbaa !61
  %11 = load ptr, ptr %2, align 8, !tbaa !53
  %12 = getelementptr inbounds nuw %struct.Aig_CMan_t_, ptr %11, i32 0, i32 9
  %13 = getelementptr inbounds [0 x i8], ptr %12, i64 0, i64 0
  %14 = load ptr, ptr %2, align 8, !tbaa !53
  %15 = getelementptr inbounds nuw %struct.Aig_CMan_t_, ptr %14, i32 0, i32 6
  store ptr %13, ptr %15, align 8, !tbaa !62
  ret void
}