; Function Attrs: mustprogress nofree norecurse nosync nounwind willreturn memory(argmem: readwrite) uwtable
define void @Aig_CManRestart(ptr noundef initializes((12, 16), (32, 36)) %0) local_unnamed_addr #12 {
  %2 = load i32, ptr %0, align 8, !tbaa !47
  %3 = add nsw i32 %2, 1
  %4 = getelementptr inbounds nuw i8, ptr %0, i64 12
  store i32 %3, ptr %4, align 4, !tbaa !52
  %5 = getelementptr inbounds nuw i8, ptr %0, i64 32
  store i32 -1, ptr %5, align 8, !tbaa !53
  %6 = getelementptr inbounds nuw i8, ptr %0, i64 40
  %7 = getelementptr inbounds nuw i8, ptr %0, i64 24
  store ptr %6, ptr %7, align 8, !tbaa !54
  ret void
}